target datalayout = "e-m:e-p270:32:32-p271:32:32-p272:64:64-i64:64-i128:128-f80:128-n8:16:32:64-S128"
target triple = "x86_64-pc-linux-gnu"

%class.State = type { [315 x i32], [315 x i16], i32, ptr, [2 x ptr] }

; Function Attrs: mustprogress nounwind uwtable
define hidden void @_ZN5State14_sub_Op_LoadUBEPK4Node(ptr noundef nonnull align 8 dereferenceable(1920) %0, ptr noundef %1) #1 align 2 {
  %3 = alloca ptr, align 8
  %4 = alloca ptr, align 8
  %5 = alloca i32, align 4
  %6 = alloca i32, align 4
  store ptr %0, ptr %3, align 8
  store ptr %1, ptr %4, align 8
  %7 = load ptr, ptr %3, align 8
  %8 = getelementptr inbounds %class.State, ptr %7, i32 0, i32 4
  %9 = getelementptr inbounds [2 x ptr], ptr %8, i64 0, i64 0
  %10 = load ptr, ptr %9, align 8
  %11 = icmp ne ptr %10, null
  br i1 %11, label %12, label %34

12:                                               ; preds = %2
  %13 = getelementptr inbounds %class.State, ptr %7, i32 0, i32 4
  %14 = getelementptr inbounds [2 x ptr], ptr %13, i64 0, i64 0
  %15 = load ptr, ptr %14, align 8
  %16 = getelementptr inbounds %class.State, ptr %15, i32 0, i32 1
  %17 = getelementptr inbounds [315 x i16], ptr %16, i64 0, i64 127
  %18 = load i16, ptr %17, align 2
  %19 = zext i16 %18 to i32
  %20 = and i32 %19, 1
  %21 = icmp ne i32 %20, 0
  br i1 %21, label %22, label %34

22:                                               ; preds = %12
  %23 = getelementptr inbounds %class.State, ptr %7, i32 0, i32 4
  %24 = getelementptr inbounds [2 x ptr], ptr %23, i64 0, i64 0
  %25 = load ptr, ptr %24, align 8
  %26 = getelementptr inbounds %class.State, ptr %25, i32 0, i32 0
  %27 = getelementptr inbounds [315 x i32], ptr %26, i64 0, i64 127
  %28 = load i32, ptr %27, align 4
  store i32 %28, ptr %5, align 4
  %29 = load i32, ptr %5, align 4
  %30 = getelementptr inbounds %class.State, ptr %7, i32 0, i32 0
  %31 = getelementptr inbounds [315 x i32], ptr %30, i64 0, i64 141
  store i32 %29, ptr %31, align 4
  %32 = getelementptr inbounds %class.State, ptr %7, i32 0, i32 1
  %33 = getelementptr inbounds [315 x i16], ptr %32, i64 0, i64 141
  store i16 283, ptr %33, align 2
  br label %34

34:                                               ; preds = %22, %12, %2
  %35 = getelementptr inbounds %class.State, ptr %7, i32 0, i32 4
  %36 = getelementptr inbounds [2 x ptr], ptr %35, i64 0, i64 0
  %37 = load ptr, ptr %36, align 8
  %38 = icmp ne ptr %37, null
  br i1 %38, label %39, label %103

39:                                               ; preds = %34
  %40 = getelementptr inbounds %class.State, ptr %7, i32 0, i32 4
  %41 = getelementptr inbounds [2 x ptr], ptr %40, i64 0, i64 0
  %42 = load ptr, ptr %41, align 8
  %43 = getelementptr inbounds %class.State, ptr %42, i32 0, i32 1
  %44 = getelementptr inbounds [315 x i16], ptr %43, i64 0, i64 127
  %45 = load i16, ptr %44, align 2
  %46 = zext i16 %45 to i32
  %47 = and i32 %46, 1
  %48 = icmp ne i32 %47, 0
  br i1 %48, label %49, label %103

49:                                               ; preds = %39
  %50 = getelementptr inbounds %class.State, ptr %7, i32 0, i32 4
  %51 = getelementptr inbounds [2 x ptr], ptr %50, i64 0, i64 0
  %52 = load ptr, ptr %51, align 8
  %53 = getelementptr inbounds %class.State, ptr %52, i32 0, i32 0
  %54 = getelementptr inbounds [315 x i32], ptr %53, i64 0, i64 127
  %55 = load i32, ptr %54, align 4
  %56 = add i32 %55, 125
  store i32 %56, ptr %6, align 4
  %57 = load i32, ptr %6, align 4
  %58 = getelementptr inbounds %class.State, ptr %7, i32 0, i32 0
  %59 = getelementptr inbounds [315 x i32], ptr %58, i64 0, i64 49
  store i32 %57, ptr %59, align 4
  %60 = getelementptr inbounds %class.State, ptr %7, i32 0, i32 1
  %61 = getelementptr inbounds [315 x i16], ptr %60, i64 0, i64 49
  store i16 1101, ptr %61, align 2
  %62 = load i32, ptr %6, align 4
  %63 = add i32 %62, 100
  %64 = getelementptr inbounds %class.State, ptr %7, i32 0, i32 0
  %65 = getelementptr inbounds [315 x i32], ptr %64, i64 0, i64 105
  store i32 %63, ptr %65, align 4
  %66 = getelementptr inbounds %class.State, ptr %7, i32 0, i32 1
  %67 = getelementptr inbounds [315 x i16], ptr %66, i64 0, i64 105
  store i16 631, ptr %67, align 2
  %68 = load i32, ptr %6, align 4
  %69 = getelementptr inbounds %class.State, ptr %7, i32 0, i32 0
  %70 = getelementptr inbounds [315 x i32], ptr %69, i64 0, i64 50
  store i32 %68, ptr %70, align 8
  %71 = getelementptr inbounds %class.State, ptr %7, i32 0, i32 1
  %72 = getelementptr inbounds [315 x i16], ptr %71, i64 0, i64 50
  store i16 1101, ptr %72, align 4
  %73 = load i32, ptr %6, align 4
  %74 = getelementptr inbounds %class.State, ptr %7, i32 0, i32 0
  %75 = getelementptr inbounds [315 x i32], ptr %74, i64 0, i64 56
  store i32 %73, ptr %75, align 8
  %76 = getelementptr inbounds %class.State, ptr %7, i32 0, i32 1
  %77 = getelementptr inbounds [315 x i16], ptr %76, i64 0, i64 56
  store i16 1101, ptr %77, align 4
  %78 = load i32, ptr %6, align 4
  %79 = getelementptr inbounds %class.State, ptr %7, i32 0, i32 0
  %80 = getelementptr inbounds [315 x i32], ptr %79, i64 0, i64 51
  store i32 %78, ptr %80, align 4
  %81 = getelementptr inbounds %class.State, ptr %7, i32 0, i32 1
  %82 = getelementptr inbounds [315 x i16], ptr %81, i64 0, i64 51
  store i16 1101, ptr %82, align 2
  %83 = load i32, ptr %6, align 4
  %84 = getelementptr inbounds %class.State, ptr %7, i32 0, i32 0
  %85 = getelementptr inbounds [315 x i32], ptr %84, i64 0, i64 55
  store i32 %83, ptr %85, align 4
  %86 = getelementptr inbounds %class.State, ptr %7, i32 0, i32 1
  %87 = getelementptr inbounds [315 x i16], ptr %86, i64 0, i64 55
  store i16 1101, ptr %87, align 2
  %88 = load i32, ptr %6, align 4
  %89 = getelementptr inbounds %class.State, ptr %7, i32 0, i32 0
  %90 = getelementptr inbounds [315 x i32], ptr %89, i64 0, i64 52
  store i32 %88, ptr %90, align 8
  %91 = getelementptr inbounds %class.State, ptr %7, i32 0, i32 1
  %92 = getelementptr inbounds [315 x i16], ptr %91, i64 0, i64 52
  store i16 1101, ptr %92, align 4
  %93 = load i32, ptr %6, align 4
  %94 = getelementptr inbounds %class.State, ptr %7, i32 0, i32 0
  %95 = getelementptr inbounds [315 x i32], ptr %94, i64 0, i64 53
  store i32 %93, ptr %95, align 4
  %96 = getelementptr inbounds %class.State, ptr %7, i32 0, i32 1
  %97 = getelementptr inbounds [315 x i16], ptr %96, i64 0, i64 53
  store i16 1101, ptr %97, align 2
  %98 = load i32, ptr %6, align 4
  %99 = getelementptr inbounds %class.State, ptr %7, i32 0, i32 0
  %100 = getelementptr inbounds [315 x i32], ptr %99, i64 0, i64 54
  store i32 %98, ptr %100, align 8
  %101 = getelementptr inbounds %class.State, ptr %7, i32 0, i32 1
  %102 = getelementptr inbounds [315 x i16], ptr %101, i64 0, i64 54
  store i16 1101, ptr %102, align 4
  br label %103

103:                                              ; preds = %49, %39, %34
  ret void
}