; Function Attrs: mustprogress nofree norecurse nosync nounwind willreturn memory(read, argmem: readwrite, inaccessiblemem: none) uwtable
define hidden void @_ZN5State14_sub_Op_LoadUBEPK4Node(ptr nocapture noundef nonnull align 8 dereferenceable(1920) %0, ptr nocapture readnone %1) local_unnamed_addr #1 align 2 {
  %3 = getelementptr inbounds i8, ptr %0, i64 1904
  %4 = load ptr, ptr %3, align 8
  %.not = icmp eq ptr %4, null
  br i1 %.not, label %.thread, label %5

5:                                                ; preds = %2
  %6 = getelementptr inbounds i8, ptr %4, i64 1514
  %7 = load i16, ptr %6, align 2
  %8 = and i16 %7, 1
  %.not11 = icmp eq i16 %8, 0
  br i1 %.not11, label %.thread, label %9

9:                                                ; preds = %5
  %10 = getelementptr inbounds i8, ptr %4, i64 508
  %11 = load i32, ptr %10, align 4
  %12 = getelementptr inbounds i8, ptr %0, i64 564
  store i32 %11, ptr %12, align 4
  %13 = getelementptr inbounds i8, ptr %0, i64 1542
  store i16 283, ptr %13, align 2
  %.pre = load i16, ptr %6, align 2
  %.pre14 = and i16 %.pre, 1
  %14 = icmp eq i16 %.pre14, 0
  br i1 %14, label %.thread, label %15

15:                                               ; preds = %9
  %16 = getelementptr inbounds i8, ptr %4, i64 508
  %17 = load i32, ptr %16, align 4
  %18 = add i32 %17, 125
  %19 = getelementptr inbounds i8, ptr %0, i64 196
  %20 = getelementptr inbounds i8, ptr %0, i64 1358
  %21 = add i32 %17, 225
  %22 = getelementptr inbounds i8, ptr %0, i64 420
  store i32 %21, ptr %22, align 4
  %23 = getelementptr inbounds i8, ptr %0, i64 1470
  store i16 631, ptr %23, align 2
  %24 = insertelement <4 x i32> poison, i32 %18, i64 0
  %25 = shufflevector <4 x i32> %24, <4 x i32> poison, <4 x i32> zeroinitializer
  store <4 x i32> %25, ptr %19, align 4
  %26 = getelementptr inbounds i8, ptr %0, i64 212
  store <4 x i32> %25, ptr %26, align 4
  store <8 x i16> <i16 1101, i16 1101, i16 1101, i16 1101, i16 1101, i16 1101, i16 1101, i16 1101>, ptr %20, align 2
  br label %.thread

.thread:                                          ; preds = %5, %2, %15, %9
  ret void
}